; Function Attrs: mustprogress nofree norecurse nosync nounwind willreturn memory(read, inaccessiblemem: none) uwtable
define noundef ptr @_ZN8nanobind6detail11nb_inst_ptrEP7_object(ptr noundef %0) local_unnamed_addr #13 personality ptr @__gxx_personality_v0 {
  %2 = ptrtoint ptr %0 to i64
  %3 = getelementptr inbounds nuw i8, ptr %0, i64 16
  %4 = load i32, ptr %3, align 8
  %5 = sext i32 %4 to i64
  %6 = add nsw i64 %5, %2
  %7 = inttoptr i64 %6 to ptr
  %8 = getelementptr inbounds nuw i8, ptr %0, i64 20
  %9 = load i32, ptr %8, align 4
  %10 = and i32 %9, 4
  %.not.i = icmp eq i32 %10, 0
  br i1 %.not.i, label %11, label %_ZN8nanobind6detail8inst_ptrEPNS0_7nb_instE.exit

11:                                               ; preds = %1
  %12 = load ptr, ptr %7, align 8
  br label %_ZN8nanobind6detail8inst_ptrEPNS0_7nb_instE.exit

_ZN8nanobind6detail8inst_ptrEPNS0_7nb_instE.exit: ; preds = %1, %11
  %13 = phi ptr [ %12, %11 ], [ %7, %1 ]
  ret ptr %13
}